target datalayout = "e-m:e-p270:32:32-p271:32:32-p272:64:64-i64:64-i128:128-f80:128-n8:16:32:64-S128"
target triple = "x86_64-pc-linux-gnu"

%"class.__gnu_cxx::__normal_iterator.298" = type { ptr }
%class.anon.299 = type { ptr, ptr, ptr }
%"class.tbb::detail::d1::quick_sort_range" = type { ptr, i64, %"class.__gnu_cxx::__normal_iterator.298" }

; Function Attrs: inlinehint mustprogress nounwind ssp uwtable
define linkonce_odr noundef float @_ZSt3expf(float noundef %0) #6 comdat {
  %2 = alloca float, align 4
  store float %0, ptr %2, align 4, !tbaa !68
  %3 = load float, ptr %2, align 4, !tbaa !68
  %4 = call float @expf(float noundef %3) #7, !tbaa !121
  ret float %4
}

; Function Attrs: inlinehint mustprogress ssp uwtable
define internal noundef zeroext i1 @"_ZZN6open3d1t2io12_GLOBAL__N_118SortedSplatIndicesERNS0_8geometry9TensorMapEENK3$_0clEmm"(ptr noundef nonnull align 8 dereferenceable(24) %0, i64 noundef %1, i64 noundef %2) #16 align 2 {
  %4 = alloca ptr, align 8
  %5 = alloca i64, align 8
  %6 = alloca i64, align 8
  %7 = alloca float, align 4
  %8 = alloca float, align 4
  %9 = alloca float, align 4
  %10 = alloca float, align 4
  store ptr %0, ptr %4, align 8, !tbaa !86
  store i64 %1, ptr %5, align 8, !tbaa !30
  store i64 %2, ptr %6, align 8, !tbaa !30
  %11 = load ptr, ptr %4, align 8
  call void @llvm.lifetime.start.p0(i64 4, ptr %7) #7
  %12 = getelementptr inbounds nuw %class.anon.299, ptr %11, i32 0, i32 0
  %13 = load ptr, ptr %12, align 8, !tbaa !1167
  %14 = load ptr, ptr %13, align 8, !tbaa !164
  %15 = load i64, ptr %5, align 8, !tbaa !30
  %16 = getelementptr inbounds nuw %class.anon.299, ptr %11, i32 0, i32 1
  %17 = load ptr, ptr %16, align 8, !tbaa !1169
  %18 = load i64, ptr %17, align 8, !tbaa !30
  %19 = mul i64 %15, %18
  %20 = getelementptr inbounds nuw float, ptr %14, i64 %19
  %21 = load float, ptr %20, align 4, !tbaa !68
  %22 = getelementptr inbounds nuw %class.anon.299, ptr %11, i32 0, i32 0
  %23 = load ptr, ptr %22, align 8, !tbaa !1167
  %24 = load ptr, ptr %23, align 8, !tbaa !164
  %25 = load i64, ptr %5, align 8, !tbaa !30
  %26 = getelementptr inbounds nuw %class.anon.299, ptr %11, i32 0, i32 1
  %27 = load ptr, ptr %26, align 8, !tbaa !1169
  %28 = load i64, ptr %27, align 8, !tbaa !30
  %29 = mul i64 %25, %28
  %30 = add i64 %29, 1
  %31 = getelementptr inbounds nuw float, ptr %24, i64 %30
  %32 = load float, ptr %31, align 4, !tbaa !68
  %33 = fadd float %21, %32
  %34 = getelementptr inbounds nuw %class.anon.299, ptr %11, i32 0, i32 0
  %35 = load ptr, ptr %34, align 8, !tbaa !1167
  %36 = load ptr, ptr %35, align 8, !tbaa !164
  %37 = load i64, ptr %5, align 8, !tbaa !30
  %38 = getelementptr inbounds nuw %class.anon.299, ptr %11, i32 0, i32 1
  %39 = load ptr, ptr %38, align 8, !tbaa !1169
  %40 = load i64, ptr %39, align 8, !tbaa !30
  %41 = mul i64 %37, %40
  %42 = add i64 %41, 2
  %43 = getelementptr inbounds nuw float, ptr %36, i64 %42
  %44 = load float, ptr %43, align 4, !tbaa !68
  %45 = fadd float %33, %44
  store float %45, ptr %7, align 4, !tbaa !68
  call void @llvm.lifetime.start.p0(i64 4, ptr %8) #7
  %46 = getelementptr inbounds nuw %class.anon.299, ptr %11, i32 0, i32 0
  %47 = load ptr, ptr %46, align 8, !tbaa !1167
  %48 = load ptr, ptr %47, align 8, !tbaa !164
  %49 = load i64, ptr %6, align 8, !tbaa !30
  %50 = getelementptr inbounds nuw %class.anon.299, ptr %11, i32 0, i32 1
  %51 = load ptr, ptr %50, align 8, !tbaa !1169
  %52 = load i64, ptr %51, align 8, !tbaa !30
  %53 = mul i64 %49, %52
  %54 = getelementptr inbounds nuw float, ptr %48, i64 %53
  %55 = load float, ptr %54, align 4, !tbaa !68
  %56 = getelementptr inbounds nuw %class.anon.299, ptr %11, i32 0, i32 0
  %57 = load ptr, ptr %56, align 8, !tbaa !1167
  %58 = load ptr, ptr %57, align 8, !tbaa !164
  %59 = load i64, ptr %6, align 8, !tbaa !30
  %60 = getelementptr inbounds nuw %class.anon.299, ptr %11, i32 0, i32 1
  %61 = load ptr, ptr %60, align 8, !tbaa !1169
  %62 = load i64, ptr %61, align 8, !tbaa !30
  %63 = mul i64 %59, %62
  %64 = add i64 %63, 1
  %65 = getelementptr inbounds nuw float, ptr %58, i64 %64
  %66 = load float, ptr %65, align 4, !tbaa !68
  %67 = fadd float %55, %66
  %68 = getelementptr inbounds nuw %class.anon.299, ptr %11, i32 0, i32 0
  %69 = load ptr, ptr %68, align 8, !tbaa !1167
  %70 = load ptr, ptr %69, align 8, !tbaa !164
  %71 = load i64, ptr %6, align 8, !tbaa !30
  %72 = getelementptr inbounds nuw %class.anon.299, ptr %11, i32 0, i32 1
  %73 = load ptr, ptr %72, align 8, !tbaa !1169
  %74 = load i64, ptr %73, align 8, !tbaa !30
  %75 = mul i64 %71, %74
  %76 = add i64 %75, 2
  %77 = getelementptr inbounds nuw float, ptr %70, i64 %76
  %78 = load float, ptr %77, align 4, !tbaa !68
  %79 = fadd float %67, %78
  store float %79, ptr %8, align 4, !tbaa !68
  call void @llvm.lifetime.start.p0(i64 4, ptr %9) #7
  %80 = load float, ptr %7, align 4, !tbaa !68
  %81 = call noundef float @_ZSt3expf(float noundef %80)
  %82 = fneg float %81
  %83 = getelementptr inbounds nuw %class.anon.299, ptr %11, i32 0, i32 2
  %84 = load ptr, ptr %83, align 8, !tbaa !1170
  %85 = load ptr, ptr %84, align 8, !tbaa !164
  %86 = load i64, ptr %5, align 8, !tbaa !30
  %87 = getelementptr inbounds nuw float, ptr %85, i64 %86
  %88 = load float, ptr %87, align 4, !tbaa !68
  %89 = fneg float %88
  %90 = call noundef float @_ZSt3expf(float noundef %89)
  %91 = fadd float 1.000000e+00, %90
  %92 = fdiv float %82, %91
  store float %92, ptr %9, align 4, !tbaa !68
  call void @llvm.lifetime.start.p0(i64 4, ptr %10) #7
  %93 = load float, ptr %8, align 4, !tbaa !68
  %94 = call noundef float @_ZSt3expf(float noundef %93)
  %95 = fneg float %94
  %96 = getelementptr inbounds nuw %class.anon.299, ptr %11, i32 0, i32 2
  %97 = load ptr, ptr %96, align 8, !tbaa !1170
  %98 = load ptr, ptr %97, align 8, !tbaa !164
  %99 = load i64, ptr %6, align 8, !tbaa !30
  %100 = getelementptr inbounds nuw float, ptr %98, i64 %99
  %101 = load float, ptr %100, align 4, !tbaa !68
  %102 = fneg float %101
  %103 = call noundef float @_ZSt3expf(float noundef %102)
  %104 = fadd float 1.000000e+00, %103
  %105 = fdiv float %95, %104
  store float %105, ptr %10, align 4, !tbaa !68
  %106 = load float, ptr %9, align 4, !tbaa !68
  %107 = load float, ptr %10, align 4, !tbaa !68
  %108 = fcmp olt float %106, %107
  call void @llvm.lifetime.end.p0(i64 4, ptr %10) #7
  call void @llvm.lifetime.end.p0(i64 4, ptr %9) #7
  call void @llvm.lifetime.end.p0(i64 4, ptr %8) #7
  call void @llvm.lifetime.end.p0(i64 4, ptr %7) #7
  ret i1 %108
}

; Function Attrs: mustprogress nounwind ssp uwtable
define linkonce_odr noundef nonnull align 8 dereferenceable(8) ptr @_ZNK9__gnu_cxx17__normal_iteratorIPlSt6vectorIlSaIlEEEixEl(ptr noundef nonnull align 8 dereferenceable(8) %0, i64 noundef %1) #1 comdat align 2 {
  %3 = alloca ptr, align 8
  %4 = alloca i64, align 8
  store ptr %0, ptr %3, align 8, !tbaa !1152
  store i64 %1, ptr %4, align 8, !tbaa !30
  %5 = load ptr, ptr %3, align 8
  %6 = getelementptr inbounds nuw %"class.__gnu_cxx::__normal_iterator.298", ptr %5, i32 0, i32 0
  %7 = load ptr, ptr %6, align 8, !tbaa !1154
  %8 = load i64, ptr %4, align 8, !tbaa !30
  %9 = getelementptr inbounds i64, ptr %7, i64 %8
  ret ptr %9
}

; Function Attrs: mustprogress ssp uwtable
define internal noundef i64 @"_ZNK3tbb6detail2d116quick_sort_rangeIN9__gnu_cxx17__normal_iteratorIPlSt6vectorIlSaIlEEEEZN6open3d1t2io12_GLOBAL__N_118SortedSplatIndicesERNSB_8geometry9TensorMapEE3$_0E15median_of_threeERKS9_mmm"(ptr noundef nonnull align 8 dereferenceable(24) %0, ptr noundef nonnull align 8 dereferenceable(8) %1, i64 noundef %2, i64 noundef %3, i64 noundef %4) #3 align 2 {
  %6 = alloca ptr, align 8
  %7 = alloca ptr, align 8
  %8 = alloca i64, align 8
  %9 = alloca i64, align 8
  %10 = alloca i64, align 8
  store ptr %0, ptr %6, align 8, !tbaa !1214
  store ptr %1, ptr %7, align 8, !tbaa !1152
  store i64 %2, ptr %8, align 8, !tbaa !30
  store i64 %3, ptr %9, align 8, !tbaa !30
  store i64 %4, ptr %10, align 8, !tbaa !30
  %11 = load ptr, ptr %6, align 8
  %12 = getelementptr inbounds nuw %"class.tbb::detail::d1::quick_sort_range", ptr %11, i32 0, i32 0
  %13 = load ptr, ptr %12, align 8, !tbaa !1285
  %14 = load ptr, ptr %7, align 8, !tbaa !1152
  %15 = load i64, ptr %8, align 8, !tbaa !30
  %16 = call noundef nonnull align 8 dereferenceable(8) ptr @_ZNK9__gnu_cxx17__normal_iteratorIPlSt6vectorIlSaIlEEEixEl(ptr noundef nonnull align 8 dereferenceable(8) %14, i64 noundef %15) #7
  %17 = load i64, ptr %16, align 8, !tbaa !30
  %18 = load ptr, ptr %7, align 8, !tbaa !1152
  %19 = load i64, ptr %9, align 8, !tbaa !30
  %20 = call noundef nonnull align 8 dereferenceable(8) ptr @_ZNK9__gnu_cxx17__normal_iteratorIPlSt6vectorIlSaIlEEEixEl(ptr noundef nonnull align 8 dereferenceable(8) %18, i64 noundef %19) #7
  %21 = load i64, ptr %20, align 8, !tbaa !30
  %22 = call noundef zeroext i1 @"_ZZN6open3d1t2io12_GLOBAL__N_118SortedSplatIndicesERNS0_8geometry9TensorMapEENK3$_0clEmm"(ptr noundef nonnull align 8 dereferenceable(24) %13, i64 noundef %17, i64 noundef %21)
  br i1 %22, label %23, label %57

23:                                               ; preds = %5
  %24 = getelementptr inbounds nuw %"class.tbb::detail::d1::quick_sort_range", ptr %11, i32 0, i32 0
  %25 = load ptr, ptr %24, align 8, !tbaa !1285
  %26 = load ptr, ptr %7, align 8, !tbaa !1152
  %27 = load i64, ptr %9, align 8, !tbaa !30
  %28 = call noundef nonnull align 8 dereferenceable(8) ptr @_ZNK9__gnu_cxx17__normal_iteratorIPlSt6vectorIlSaIlEEEixEl(ptr noundef nonnull align 8 dereferenceable(8) %26, i64 noundef %27) #7
  %29 = load i64, ptr %28, align 8, !tbaa !30
  %30 = load ptr, ptr %7, align 8, !tbaa !1152
  %31 = load i64, ptr %10, align 8, !tbaa !30
  %32 = call noundef nonnull align 8 dereferenceable(8) ptr @_ZNK9__gnu_cxx17__normal_iteratorIPlSt6vectorIlSaIlEEEixEl(ptr noundef nonnull align 8 dereferenceable(8) %30, i64 noundef %31) #7
  %33 = load i64, ptr %32, align 8, !tbaa !30
  %34 = call noundef zeroext i1 @"_ZZN6open3d1t2io12_GLOBAL__N_118SortedSplatIndicesERNS0_8geometry9TensorMapEENK3$_0clEmm"(ptr noundef nonnull align 8 dereferenceable(24) %25, i64 noundef %29, i64 noundef %33)
  br i1 %34, label %35, label %37

35:                                               ; preds = %23
  %36 = load i64, ptr %9, align 8, !tbaa !30
  br label %55

37:                                               ; preds = %23
  %38 = getelementptr inbounds nuw %"class.tbb::detail::d1::quick_sort_range", ptr %11, i32 0, i32 0
  %39 = load ptr, ptr %38, align 8, !tbaa !1285
  %40 = load ptr, ptr %7, align 8, !tbaa !1152
  %41 = load i64, ptr %8, align 8, !tbaa !30
  %42 = call noundef nonnull align 8 dereferenceable(8) ptr @_ZNK9__gnu_cxx17__normal_iteratorIPlSt6vectorIlSaIlEEEixEl(ptr noundef nonnull align 8 dereferenceable(8) %40, i64 noundef %41) #7
  %43 = load i64, ptr %42, align 8, !tbaa !30
  %44 = load ptr, ptr %7, align 8, !tbaa !1152
  %45 = load i64, ptr %10, align 8, !tbaa !30
  %46 = call noundef nonnull align 8 dereferenceable(8) ptr @_ZNK9__gnu_cxx17__normal_iteratorIPlSt6vectorIlSaIlEEEixEl(ptr noundef nonnull align 8 dereferenceable(8) %44, i64 noundef %45) #7
  %47 = load i64, ptr %46, align 8, !tbaa !30
  %48 = call noundef zeroext i1 @"_ZZN6open3d1t2io12_GLOBAL__N_118SortedSplatIndicesERNS0_8geometry9TensorMapEENK3$_0clEmm"(ptr noundef nonnull align 8 dereferenceable(24) %39, i64 noundef %43, i64 noundef %47)
  br i1 %48, label %49, label %51

49:                                               ; preds = %37
  %50 = load i64, ptr %10, align 8, !tbaa !30
  br label %53

51:                                               ; preds = %37
  %52 = load i64, ptr %8, align 8, !tbaa !30
  br label %53

53:                                               ; preds = %51, %49
  %54 = phi i64 [ %50, %49 ], [ %52, %51 ]
  br label %55

55:                                               ; preds = %53, %35
  %56 = phi i64 [ %36, %35 ], [ %54, %53 ]
  br label %91

57:                                               ; preds = %5
  %58 = getelementptr inbounds nuw %"class.tbb::detail::d1::quick_sort_range", ptr %11, i32 0, i32 0
  %59 = load ptr, ptr %58, align 8, !tbaa !1285
  %60 = load ptr, ptr %7, align 8, !tbaa !1152
  %61 = load i64, ptr %10, align 8, !tbaa !30
  %62 = call noundef nonnull align 8 dereferenceable(8) ptr @_ZNK9__gnu_cxx17__normal_iteratorIPlSt6vectorIlSaIlEEEixEl(ptr noundef nonnull align 8 dereferenceable(8) %60, i64 noundef %61) #7
  %63 = load i64, ptr %62, align 8, !tbaa !30
  %64 = load ptr, ptr %7, align 8, !tbaa !1152
  %65 = load i64, ptr %9, align 8, !tbaa !30
  %66 = call noundef nonnull align 8 dereferenceable(8) ptr @_ZNK9__gnu_cxx17__normal_iteratorIPlSt6vectorIlSaIlEEEixEl(ptr noundef nonnull align 8 dereferenceable(8) %64, i64 noundef %65) #7
  %67 = load i64, ptr %66, align 8, !tbaa !30
  %68 = call noundef zeroext i1 @"_ZZN6open3d1t2io12_GLOBAL__N_118SortedSplatIndicesERNS0_8geometry9TensorMapEENK3$_0clEmm"(ptr noundef nonnull align 8 dereferenceable(24) %59, i64 noundef %63, i64 noundef %67)
  br i1 %68, label %69, label %71

69:                                               ; preds = %57
  %70 = load i64, ptr %9, align 8, !tbaa !30
  br label %89

71:                                               ; preds = %57
  %72 = getelementptr inbounds nuw %"class.tbb::detail::d1::quick_sort_range", ptr %11, i32 0, i32 0
  %73 = load ptr, ptr %72, align 8, !tbaa !1285
  %74 = load ptr, ptr %7, align 8, !tbaa !1152
  %75 = load i64, ptr %10, align 8, !tbaa !30
  %76 = call noundef nonnull align 8 dereferenceable(8) ptr @_ZNK9__gnu_cxx17__normal_iteratorIPlSt6vectorIlSaIlEEEixEl(ptr noundef nonnull align 8 dereferenceable(8) %74, i64 noundef %75) #7
  %77 = load i64, ptr %76, align 8, !tbaa !30
  %78 = load ptr, ptr %7, align 8, !tbaa !1152
  %79 = load i64, ptr %8, align 8, !tbaa !30
  %80 = call noundef nonnull align 8 dereferenceable(8) ptr @_ZNK9__gnu_cxx17__normal_iteratorIPlSt6vectorIlSaIlEEEixEl(ptr noundef nonnull align 8 dereferenceable(8) %78, i64 noundef %79) #7
  %81 = load i64, ptr %80, align 8, !tbaa !30
  %82 = call noundef zeroext i1 @"_ZZN6open3d1t2io12_GLOBAL__N_118SortedSplatIndicesERNS0_8geometry9TensorMapEENK3$_0clEmm"(ptr noundef nonnull align 8 dereferenceable(24) %73, i64 noundef %77, i64 noundef %81)
  br i1 %82, label %83, label %85

83:                                               ; preds = %71
  %84 = load i64, ptr %10, align 8, !tbaa !30
  br label %87

85:                                               ; preds = %71
  %86 = load i64, ptr %8, align 8, !tbaa !30
  br label %87

87:                                               ; preds = %85, %83
  %88 = phi i64 [ %84, %83 ], [ %86, %85 ]
  br label %89

89:                                               ; preds = %87, %69
  %90 = phi i64 [ %70, %69 ], [ %88, %87 ]
  br label %91

91:                                               ; preds = %89, %55
  %92 = phi i64 [ %56, %55 ], [ %90, %89 ]
  ret i64 %92
}