; Function Attrs: mustprogress nofree norecurse nounwind ssp willreturn memory(read, inaccessiblemem: none, errnomem: readwrite) uwtable
define internal fastcc noundef i64 @"_ZNK3tbb6detail2d116quick_sort_rangeIN9__gnu_cxx17__normal_iteratorIPlSt6vectorIlSaIlEEEEZN6open3d1t2io12_GLOBAL__N_118SortedSplatIndicesERNSB_8geometry9TensorMapEE3$_0E15median_of_threeERKS9_mmm"(ptr readonly captures(none) %.0.val, ptr readonly captures(none) %.0.val1, i64 noundef %0, i64 noundef %1, i64 noundef %2) unnamed_addr #33 align 2 {
  %4 = getelementptr inbounds i64, ptr %.0.val1, i64 %0
  %5 = load i64, ptr %4, align 8, !tbaa !55
  %6 = getelementptr inbounds i64, ptr %.0.val1, i64 %1
  %7 = load i64, ptr %6, align 8, !tbaa !55
  %8 = load ptr, ptr %.0.val, align 8, !tbaa !754
  %9 = load ptr, ptr %8, align 8, !tbaa !732
  %10 = getelementptr inbounds nuw i8, ptr %.0.val, i64 8
  %11 = load ptr, ptr %10, align 8, !tbaa !756
  %12 = load i64, ptr %11, align 8, !tbaa !55
  %13 = mul i64 %12, %5
  %14 = getelementptr inbounds nuw float, ptr %9, i64 %13
  %15 = load float, ptr %14, align 4, !tbaa !79
  %16 = getelementptr i8, ptr %14, i64 4
  %17 = load float, ptr %16, align 4, !tbaa !79
  %18 = fadd float %15, %17
  %19 = getelementptr i8, ptr %14, i64 8
  %20 = load float, ptr %19, align 4, !tbaa !79
  %21 = fadd float %18, %20
  %22 = mul i64 %12, %7
  %23 = getelementptr inbounds nuw float, ptr %9, i64 %22
  %24 = load float, ptr %23, align 4, !tbaa !79
  %25 = getelementptr i8, ptr %23, i64 4
  %26 = load float, ptr %25, align 4, !tbaa !79
  %27 = fadd float %24, %26
  %28 = getelementptr i8, ptr %23, i64 8
  %29 = load float, ptr %28, align 4, !tbaa !79
  %30 = fadd float %27, %29
  %31 = tail call noundef float @expf(float noundef %21) #42, !tbaa !28
  %32 = fneg float %31
  %33 = getelementptr inbounds nuw i8, ptr %.0.val, i64 16
  %34 = load ptr, ptr %33, align 8, !tbaa !757
  %35 = load ptr, ptr %34, align 8, !tbaa !732
  %36 = getelementptr inbounds nuw float, ptr %35, i64 %5
  %37 = load float, ptr %36, align 4, !tbaa !79
  %38 = fneg float %37
  %39 = tail call noundef float @expf(float noundef %38) #42, !tbaa !28
  %40 = fadd float %39, 1.000000e+00
  %41 = fdiv float %32, %40
  %42 = tail call noundef float @expf(float noundef %30) #42, !tbaa !28
  %43 = fneg float %42
  %44 = getelementptr inbounds nuw float, ptr %35, i64 %7
  %45 = load float, ptr %44, align 4, !tbaa !79
  %46 = fneg float %45
  %47 = tail call noundef float @expf(float noundef %46) #42, !tbaa !28
  %48 = fadd float %47, 1.000000e+00
  %49 = fdiv float %43, %48
  %50 = fcmp olt float %41, %49
  %51 = getelementptr inbounds i64, ptr %.0.val1, i64 %2
  %52 = load i64, ptr %51, align 8, !tbaa !55
  %53 = mul i64 %52, %12
  %54 = getelementptr inbounds nuw float, ptr %9, i64 %53
  %55 = load float, ptr %54, align 4, !tbaa !79
  %56 = getelementptr i8, ptr %54, i64 4
  %57 = load float, ptr %56, align 4, !tbaa !79
  %58 = fadd float %55, %57
  %59 = getelementptr i8, ptr %54, i64 8
  %60 = load float, ptr %59, align 4, !tbaa !79
  %61 = fadd float %58, %60
  br i1 %50, label %62, label %77

62:                                               ; preds = %3
  %63 = tail call noundef float @expf(float noundef %30) #42, !tbaa !28
  %64 = fneg float %63
  %65 = tail call noundef float @expf(float noundef %46) #42, !tbaa !28
  %66 = fadd float %65, 1.000000e+00
  %67 = fdiv float %64, %66
  %68 = tail call noundef float @expf(float noundef %61) #42, !tbaa !28
  %69 = fneg float %68
  %70 = getelementptr inbounds nuw float, ptr %35, i64 %52
  %71 = load float, ptr %70, align 4, !tbaa !79
  %72 = fneg float %71
  %73 = tail call noundef float @expf(float noundef %72) #42, !tbaa !28
  %74 = fadd float %73, 1.000000e+00
  %75 = fdiv float %69, %74
  %76 = fcmp olt float %67, %75
  br i1 %76, label %104, label %.sink.split

77:                                               ; preds = %3
  %78 = tail call noundef float @expf(float noundef %61) #42, !tbaa !28
  %79 = fneg float %78
  %80 = getelementptr inbounds nuw float, ptr %35, i64 %52
  %81 = load float, ptr %80, align 4, !tbaa !79
  %82 = fneg float %81
  %83 = tail call noundef float @expf(float noundef %82) #42, !tbaa !28
  %84 = fadd float %83, 1.000000e+00
  %85 = fdiv float %79, %84
  %86 = tail call noundef float @expf(float noundef %30) #42, !tbaa !28
  %87 = fneg float %86
  %88 = tail call noundef float @expf(float noundef %46) #42, !tbaa !28
  %89 = fadd float %88, 1.000000e+00
  %90 = fdiv float %87, %89
  %91 = fcmp olt float %85, %90
  br i1 %91, label %104, label %.sink.split

.sink.split:                                      ; preds = %77, %62
  %.sink14 = phi float [ %21, %62 ], [ %61, %77 ]
  %.sink12 = phi float [ %38, %62 ], [ %82, %77 ]
  %.sink = phi float [ %61, %62 ], [ %21, %77 ]
  %.sink7 = phi float [ %72, %62 ], [ %38, %77 ]
  %92 = tail call noundef float @expf(float noundef %.sink14) #42, !tbaa !28
  %93 = fneg float %92
  %94 = tail call noundef float @expf(float noundef %.sink12) #42, !tbaa !28
  %95 = fadd float %94, 1.000000e+00
  %96 = fdiv float %93, %95
  %97 = tail call noundef float @expf(float noundef %.sink) #42, !tbaa !28
  %98 = fneg float %97
  %99 = tail call noundef float @expf(float noundef %.sink7) #42, !tbaa !28
  %100 = fadd float %99, 1.000000e+00
  %101 = fdiv float %98, %100
  %102 = fcmp olt float %96, %101
  %103 = select i1 %102, i64 %2, i64 %0
  br label %104

104:                                              ; preds = %.sink.split, %77, %62
  %105 = phi i64 [ %1, %62 ], [ %1, %77 ], [ %103, %.sink.split ]
  ret i64 %105
}